target datalayout = "e-m:e-p270:32:32-p271:32:32-p272:64:64-i64:64-i128:128-f80:128-n8:16:32:64-S128"
target triple = "x86_64-pc-linux-gnu"

%struct.FuncState = type { ptr, ptr, ptr, ptr, ptr, ptr, i32, i32, i32, i32, i32, i32, i16, i8, [60 x %struct.upvaldesc], [200 x i16] }
%struct.upvaldesc = type { i8, i8 }
%struct.Proto = type { ptr, i8, i8, ptr, ptr, ptr, ptr, ptr, ptr, ptr, i32, i32, i32, i32, i32, i32, i32, i32, ptr, i8, i8, i8, i8 }
%struct.expdesc = type { i32, %union.anon, i32, i32 }
%union.anon = type { double }
%struct.anon = type { i32, i32 }

@.str = private unnamed_addr constant [35 x i8] c"function or expression too complex\00", align 1

; Function Attrs: nounwind uwtable
define hidden void @luaK_checkstack(ptr noundef %0, i32 noundef %1) #0 {
  %3 = alloca ptr, align 8
  %4 = alloca i32, align 4
  %5 = alloca i32, align 4
  store ptr %0, ptr %3, align 8, !tbaa !4
  store i32 %1, ptr %4, align 4, !tbaa !9
  call void @llvm.lifetime.start.p0(i64 4, ptr %5) #6
  %6 = load ptr, ptr %3, align 8, !tbaa !4
  %7 = getelementptr inbounds nuw %struct.FuncState, ptr %6, i32 0, i32 9
  %8 = load i32, ptr %7, align 4, !tbaa !42
  %9 = load i32, ptr %4, align 4, !tbaa !9
  %10 = add nsw i32 %8, %9
  store i32 %10, ptr %5, align 4, !tbaa !9
  %11 = load i32, ptr %5, align 4, !tbaa !9
  %12 = load ptr, ptr %3, align 8, !tbaa !4
  %13 = getelementptr inbounds nuw %struct.FuncState, ptr %12, i32 0, i32 0
  %14 = load ptr, ptr %13, align 8, !tbaa !21
  %15 = getelementptr inbounds nuw %struct.Proto, ptr %14, i32 0, i32 22
  %16 = load i8, ptr %15, align 1, !tbaa !43
  %17 = zext i8 %16 to i32
  %18 = icmp sgt i32 %11, %17
  br i1 %18, label %19, label %33

19:                                               ; preds = %2
  %20 = load i32, ptr %5, align 4, !tbaa !9
  %21 = icmp sge i32 %20, 250
  br i1 %21, label %22, label %26

22:                                               ; preds = %19
  %23 = load ptr, ptr %3, align 8, !tbaa !4
  %24 = getelementptr inbounds nuw %struct.FuncState, ptr %23, i32 0, i32 3
  %25 = load ptr, ptr %24, align 8, !tbaa !32
  call void @luaX_syntaxerror(ptr noundef %25, ptr noundef @.str)
  br label %26

26:                                               ; preds = %22, %19
  %27 = load i32, ptr %5, align 4, !tbaa !9
  %28 = trunc i32 %27 to i8
  %29 = load ptr, ptr %3, align 8, !tbaa !4
  %30 = getelementptr inbounds nuw %struct.FuncState, ptr %29, i32 0, i32 0
  %31 = load ptr, ptr %30, align 8, !tbaa !21
  %32 = getelementptr inbounds nuw %struct.Proto, ptr %31, i32 0, i32 22
  store i8 %28, ptr %32, align 1, !tbaa !43
  br label %33

33:                                               ; preds = %26, %2
  call void @llvm.lifetime.end.p0(i64 4, ptr %5) #6
  ret void
}

; Function Attrs: nounwind uwtable
define internal void @freereg(ptr noundef %0, i32 noundef %1) #0 {
  %3 = alloca ptr, align 8
  %4 = alloca i32, align 4
  store ptr %0, ptr %3, align 8, !tbaa !4
  store i32 %1, ptr %4, align 4, !tbaa !9
  %5 = load i32, ptr %4, align 4, !tbaa !9
  %6 = and i32 %5, 256
  %7 = icmp ne i32 %6, 0
  br i1 %7, label %20, label %8

8:                                                ; preds = %2
  %9 = load i32, ptr %4, align 4, !tbaa !9
  %10 = load ptr, ptr %3, align 8, !tbaa !4
  %11 = getelementptr inbounds nuw %struct.FuncState, ptr %10, i32 0, i32 13
  %12 = load i8, ptr %11, align 2, !tbaa !20
  %13 = zext i8 %12 to i32
  %14 = icmp sge i32 %9, %13
  br i1 %14, label %15, label %20

15:                                               ; preds = %8
  %16 = load ptr, ptr %3, align 8, !tbaa !4
  %17 = getelementptr inbounds nuw %struct.FuncState, ptr %16, i32 0, i32 9
  %18 = load i32, ptr %17, align 4, !tbaa !42
  %19 = add nsw i32 %18, -1
  store i32 %19, ptr %17, align 4, !tbaa !42
  br label %20

20:                                               ; preds = %15, %8, %2
  ret void
}

; Function Attrs: nounwind uwtable
define hidden void @luaK_reserveregs(ptr noundef %0, i32 noundef %1) #0 {
  %3 = alloca ptr, align 8
  %4 = alloca i32, align 4
  store ptr %0, ptr %3, align 8, !tbaa !4
  store i32 %1, ptr %4, align 4, !tbaa !9
  %5 = load ptr, ptr %3, align 8, !tbaa !4
  %6 = load i32, ptr %4, align 4, !tbaa !9
  call void @luaK_checkstack(ptr noundef %5, i32 noundef %6)
  %7 = load i32, ptr %4, align 4, !tbaa !9
  %8 = load ptr, ptr %3, align 8, !tbaa !4
  %9 = getelementptr inbounds nuw %struct.FuncState, ptr %8, i32 0, i32 9
  %10 = load i32, ptr %9, align 4, !tbaa !42
  %11 = add nsw i32 %10, %7
  store i32 %11, ptr %9, align 4, !tbaa !42
  ret void
}

; Function Attrs: nounwind uwtable
define internal void @freeexp(ptr noundef %0, ptr noundef %1) #0 {
  %3 = alloca ptr, align 8
  %4 = alloca ptr, align 8
  store ptr %0, ptr %3, align 8, !tbaa !4
  store ptr %1, ptr %4, align 8, !tbaa !60
  %5 = load ptr, ptr %4, align 8, !tbaa !60
  %6 = getelementptr inbounds nuw %struct.expdesc, ptr %5, i32 0, i32 0
  %7 = load i32, ptr %6, align 8, !tbaa !62
  %8 = icmp eq i32 %7, 12
  br i1 %8, label %9, label %15

9:                                                ; preds = %2
  %10 = load ptr, ptr %3, align 8, !tbaa !4
  %11 = load ptr, ptr %4, align 8, !tbaa !60
  %12 = getelementptr inbounds nuw %struct.expdesc, ptr %11, i32 0, i32 1
  %13 = getelementptr inbounds nuw %struct.anon, ptr %12, i32 0, i32 0
  %14 = load i32, ptr %13, align 8, !tbaa !46
  call void @freereg(ptr noundef %10, i32 noundef %14)
  br label %15

15:                                               ; preds = %9, %2
  ret void
}

; Function Attrs: nounwind uwtable
define hidden void @luaK_exp2nextreg(ptr noundef %0, ptr noundef %1) #0 {
  %3 = alloca ptr, align 8
  %4 = alloca ptr, align 8
  store ptr %0, ptr %3, align 8, !tbaa !4
  store ptr %1, ptr %4, align 8, !tbaa !60
  %5 = load ptr, ptr %3, align 8, !tbaa !4
  %6 = load ptr, ptr %4, align 8, !tbaa !60
  call void @luaK_dischargevars(ptr noundef %5, ptr noundef %6)
  %7 = load ptr, ptr %3, align 8, !tbaa !4
  %8 = load ptr, ptr %4, align 8, !tbaa !60
  call void @freeexp(ptr noundef %7, ptr noundef %8)
  %9 = load ptr, ptr %3, align 8, !tbaa !4
  call void @luaK_reserveregs(ptr noundef %9, i32 noundef 1)
  %10 = load ptr, ptr %3, align 8, !tbaa !4
  %11 = load ptr, ptr %4, align 8, !tbaa !60
  %12 = load ptr, ptr %3, align 8, !tbaa !4
  %13 = getelementptr inbounds nuw %struct.FuncState, ptr %12, i32 0, i32 9
  %14 = load i32, ptr %13, align 4, !tbaa !42
  %15 = sub nsw i32 %14, 1
  call void @exp2reg(ptr noundef %10, ptr noundef %11, i32 noundef %15)
  ret void
}