; Function Attrs: nounwind uwtable
define hidden void @luaK_exp2nextreg(ptr noundef captures(none) %0, ptr noundef captures(none) %1) local_unnamed_addr #0 {
  tail call void @luaK_dischargevars(ptr noundef %0, ptr noundef %1)
  %3 = load i32, ptr %1, align 8, !tbaa !51
  %4 = icmp eq i32 %3, 12
  br i1 %4, label %5, label %freeexp.exit

5:                                                ; preds = %2
  %6 = getelementptr inbounds nuw i8, ptr %1, i64 8
  %7 = load i32, ptr %6, align 8, !tbaa !39
  %8 = and i32 %7, 256
  %.not.i.i = icmp eq i32 %8, 0
  br i1 %.not.i.i, label %9, label %freeexp.exit

9:                                                ; preds = %5
  %10 = getelementptr inbounds nuw i8, ptr %0, i64 74
  %11 = load i8, ptr %10, align 2, !tbaa !18
  %12 = zext i8 %11 to i32
  %.not3.i.i = icmp slt i32 %7, %12
  br i1 %.not3.i.i, label %freeexp.exit, label %13

13:                                               ; preds = %9
  %14 = getelementptr inbounds nuw i8, ptr %0, i64 60
  %15 = load i32, ptr %14, align 4, !tbaa !41
  %16 = add nsw i32 %15, -1
  store i32 %16, ptr %14, align 4, !tbaa !41
  br label %freeexp.exit

freeexp.exit:                                     ; preds = %2, %5, %9, %13
  %17 = getelementptr inbounds nuw i8, ptr %0, i64 60
  %18 = load i32, ptr %17, align 4, !tbaa !41
  %19 = add nsw i32 %18, 1
  %20 = load ptr, ptr %0, align 8, !tbaa !19
  %21 = getelementptr inbounds nuw i8, ptr %20, i64 115
  %22 = load i8, ptr %21, align 1, !tbaa !42
  %23 = zext i8 %22 to i32
  %.not = icmp slt i32 %18, %23
  br i1 %.not, label %luaK_reserveregs.exit, label %24

24:                                               ; preds = %freeexp.exit
  %25 = icmp samesign ugt i32 %19, 249
  br i1 %25, label %26, label %29

26:                                               ; preds = %24
  %27 = getelementptr inbounds nuw i8, ptr %0, i64 24
  %28 = load ptr, ptr %27, align 8, !tbaa !30
  tail call void @luaX_syntaxerror(ptr noundef %28, ptr noundef nonnull @.str) #8
  %.pre.i.i = load ptr, ptr %0, align 8, !tbaa !19
  %.pre.pre.i = load i32, ptr %17, align 4, !tbaa !41
  %.pre5.i = add nsw i32 %.pre.pre.i, 1
  br label %29

29:                                               ; preds = %26, %24
  %.pre4.pre-phi.i = phi i32 [ %.pre5.i, %26 ], [ %19, %24 ]
  %30 = phi ptr [ %.pre.i.i, %26 ], [ %20, %24 ]
  %31 = trunc i32 %19 to i8
  %32 = getelementptr inbounds nuw i8, ptr %30, i64 115
  store i8 %31, ptr %32, align 1, !tbaa !42
  br label %luaK_reserveregs.exit

luaK_reserveregs.exit:                            ; preds = %freeexp.exit, %29
  %.pre-phi.i = phi i32 [ %19, %freeexp.exit ], [ %.pre4.pre-phi.i, %29 ]
  store i32 %.pre-phi.i, ptr %17, align 4, !tbaa !41
  %33 = add nsw i32 %.pre-phi.i, -1
  tail call fastcc void @exp2reg(ptr noundef nonnull %0, ptr noundef nonnull %1, i32 noundef %33)
  ret void
}